; Function Attrs: mustprogress uwtable
define range(i32 0, 2) i32 @ImfTiledInputReadTiles(ptr noundef nonnull %0, i32 noundef %1, i32 noundef %2, i32 noundef %3, i32 noundef %4, i32 noundef %5, i32 noundef %6) local_unnamed_addr #8 personality ptr @__gxx_personality_v0 {
  invoke void @_ZN7Imf_3_418TiledRgbaInputFile9readTilesEiiiiii(ptr noundef nonnull align 8 dereferenceable(56) %0, i32 noundef %1, i32 noundef %2, i32 noundef %3, i32 noundef %4, i32 noundef %5, i32 noundef %6)
          to label %21 unwind label %8

8:                                                ; preds = %7
  %9 = landingpad { ptr, i32 }
          catch ptr @_ZTISt9exception
  %10 = extractvalue { ptr, i32 } %9, 1
  %11 = tail call i32 @llvm.eh.typeid.for.p0(ptr nonnull @_ZTISt9exception) #24
  %12 = icmp eq i32 %10, %11
  br i1 %12, label %13, label %22

13:                                               ; preds = %8
  %14 = extractvalue { ptr, i32 } %9, 0
  %15 = tail call ptr @__cxa_begin_catch(ptr %14) #24
  %16 = load ptr, ptr %15, align 8, !tbaa !22
  %17 = getelementptr inbounds nuw i8, ptr %16, i64 16
  %18 = load ptr, ptr %17, align 8
  %19 = tail call noundef ptr %18(ptr noundef nonnull align 8 dereferenceable(8) %15) #24
  %20 = tail call ptr @strncpy(ptr noundef nonnull dereferenceable(1) @_ZN12_GLOBAL__N_112errorMessageE, ptr noundef nonnull dereferenceable(1) %19, i64 noundef 1023) #24
  store i8 0, ptr getelementptr inbounds nuw (i8, ptr @_ZN12_GLOBAL__N_112errorMessageE, i64 1023), align 1, !tbaa !15
  tail call void @__cxa_end_catch()
  br label %21

21:                                               ; preds = %7, %13
  %.0 = phi i32 [ 0, %13 ], [ 1, %7 ]
  ret i32 %.0

22:                                               ; preds = %8
  resume { ptr, i32 } %9
}